Certificate:
    Data:
        Version: 3 (0x2)
        Serial Number: 17335157106830062850 (0xf092d98b0631b502)
    Signature Algorithm: sha1WithRSAEncryption
        Issuer: C=AU, ST=Some-State, O=Internet Widgits Pty Ltd, CN=tim4
        Validity
            Not Before: May 24 13:47:39 2016 GMT
            Not After : May 24 13:47:39 2017 GMT
        Subject: C=AU, ST=Some-State, O=Internet Widgits Pty Ltd, CN=tim
        Subject Public Key Info:
            Public Key Algorithm: rsaEncryption
                Public-Key: (2048 bit)
                Modulus:
                    00:c7:5c:52:04:aa:37:ac:85:05:00:fc:f7:78:8c:
                    7e:c9:13:35:66:87:ee:38:e9:8c:e9:8c:55:93:52:
                    3c:af:77:ce:29:7e:d1:41:19:6a:41:80:1f:05:a5:
                    0b:9c:d2:ba:73:d0:4b:8f:44:6f:02:42:f0:88:ab:
                    4e:22:d4:e8:51:a0:c9:9b:11:42:a5:1e:c8:05:81:
                    06:ad:c7:bf:ee:e3:83:b7:58:c5:03:d7:64:ff:4b:
                    29:8d:a1:08:1f:66:9f:dd:79:d5:de:f2:a6:7c:d7:
                    6e:24:b4:29:14:3f:d2:1d:5e:60:b5:8d:bd:20:52:
                    d0:8c:f2:9c:03:2c:df:55:92:05:33:3f:2d:43:98:
                    2e:da:46:5c:37:39:0b:50:74:5a:25:39:fb:73:bc:
                    50:8c:7b:f2:4f:bf:e5:11:bf:5b:dc:ff:bc:53:9b:
                    e5:40:51:9a:dc:45:03:9b:00:df:36:90:96:f4:80:
                    80:79:0c:fd:6d:c3:87:42:5e:cb:a5:0c:27:3f:08:
                    b4:bb:04:be:6b:67:d5:de:26:8f:22:29:46:da:95:
                    75:01:12:18:97:0d:64:d5:60:25:11:35:40:35:03:
                    b7:56:b2:9e:95:00:56:c6:9e:ad:50:94:67:60:c4:
                    ac:92:21:a2:c5:d0:ba:8e:11:67:0b:09:47:0e:c2:
                    a0:79
                Exponent: 65537 (0x10001)
        X509v3 extensions:
            X509v3 Basic Constraints: 
                CA:FALSE
            Netscape Comment: 
                OpenSSL Generated Certificate
            X509v3 Subject Key Identifier: 
                6E:CB:41:C3:31:E1:07:11:9A:A8:7A:46:E6:30:42:F0:0B:44:75:68
            X509v3 Authority Key Identifier: 
                keyid:03:0B:A6:1E:C2:49:2D:70:B1:DE:34:9E:01:10:9E:5E:4B:F0:4C:19

    Signature Algorithm: sha1WithRSAEncryption
         0e:07:fb:f7:d3:b6:cb:a8:f1:ea:fd:70:52:0b:b8:a5:ef:9d:
         6c:6d:a8:3f:09:1d:74:dd:d0:c8:f5:4b:57:08:0e:66:ef:2e:
         6d:0c:0e:98:b0:a3:be:db:cd:c3:86:e8:85:88:6a:cc:73:00:
         e4:08:92:ad:3e:ea:0e:41:20:f5:62:9c:1d:2d:af:de:4f:cd:
         f8:ac:3b:4a:45:79:0b:01:6e:20:96:bf:6b:44:35:d4:d2:b4:
         ee:88:9a:29:cf:db:af:3f:0e:4f:40:9e:c8:7e:db:c8:00:93:
         69:b2:a5:c3:56:87:b5:96:aa:d1:29:2c:c3:7c:3d:e0:3f:aa:
         41:a2:03:5c:b7:22:a0:94:af:a2:73:76:10:29:5d:fe:d7:fd:
         24:38:f7:77:01:11:ae:24:91:f1:a5:cc:b2:ce:3b:bc:43:02:
         63:0d:e2:c8:c7:cd:34:02:f6:08:cd:2c:a7:b6:b0:cb:f6:7e:
         2c:22:31:22:d2:62:40:77:36:98:2f:fa:a7:16:06:4c:8b:e2:
         00:76:1c:39:e1:9e:8e:5f:20:fb:0a:c1:57:7f:c9:65:fe:2c:
         cc:9a:70:4b:7a:06:16:9f:f7:f0:4a:34:80:eb:f6:7b:79:ab:
         38:19:41:de:55:e1:d9:e8:0d:53:28:6a:59:40:23:f9:fa:45:
         69:91:37:5f
-----BEGIN CERTIFICATE-----
MIIDpTCCAo2gAwIBAgIJAPCS2YsGMbUCMA0GCSqGSIb3DQEBBQUAMFQxCzAJBgNV
BAYTAkFVMRMwEQYDVQQIDApTb21lLVN0YXRlMSEwHwYDVQQKDBhJbnRlcm5ldCBX
aWRnaXRzIFB0eSBMdGQxDTALBgNVBAMMBHRpbTQwHhcNMTYwNTI0MTM0NzM5WhcN
MTcwNTI0MTM0NzM5WjBTMQswCQYDVQQGEwJBVTETMBEGA1UECAwKU29tZS1TdGF0
ZTEhMB8GA1UECgwYSW50ZXJuZXQgV2lkZ2l0cyBQdHkgTHRkMQwwCgYDVQQDDAN0
aW0wggEiMA0GCSqGSIb3DQEBAQUAA4IBDwAwggEKAoIBAQDHXFIEqjeshQUA/Pd4
jH7JEzVmh+446YzpjFWTUjyvd84pftFBGWpBgB8FpQuc0rpz0EuPRG8CQvCIq04i
1OhRoMmbEUKlHsgFgQatx7/u44O3WMUD12T/SymNoQgfZp/dedXe8qZ8124ktCkU
P9IdXmC1jb0gUtCM8pwDLN9VkgUzPy1DmC7aRlw3OQtQdFolOftzvFCMe/JPv+UR
v1vc/7xTm+VAUZrcRQObAN82kJb0gIB5DP1tw4dCXsulDCc/CLS7BL5rZ9XeJo8i
KUbalXUBEhiXDWTVYCURNUA1A7dWsp6VAFbGnq1QlGdgxKySIaLF0LqOEWcLCUcO
wqB5AgMBAAGjezB5MAkGA1UdEwQCMAAwLAYJYIZIAYb4QgENBB8WHU9wZW5TU0wg
R2VuZXJhdGVkIENlcnRpZmljYXRlMB0GA1UdDgQWBBRuy0HDMeEHEZqoekbmMELw
C0R1aDAfBgNVHSMEGDAWgBQDC6YewkktcLHeNJ4BEJ5eS/BMGTANBgkqhkiG9w0B
AQUFAAOCAQEADgf799O2y6jx6v1wUgu4pe+dbG2oPwkddN3QyPVLVwgOZu8ubQwO
mLCjvtvNw4bohYhqzHMA5AiSrT7qDkEg9WKcHS2v3k/N+Kw7SkV5CwFuIJa/a0Q1
1NK07oiaKc/brz8OT0CeyH7byACTabKlw1aHtZaq0Sksw3w94D+qQaIDXLcioJSv
onN2ECld/tf9JDj3dwERriSR8aXMss47vEMCYw3iyMfNNAL2CM0sp7awy/Z+LCIx
ItJiQHc2mC/6pxYGTIviAHYcOeGejl8g+wrBV3/JZf4szJpwS3oGFp/38Eo0gOv2
e3mrOBlB3lXh2egNUyhqWUAj+fpFaZE3Xw==
-----END CERTIFICATE-----
