Certificate:
    Data:
        Version: 3 (0x2)
        Serial Number: 11728247195836667130 (0xa2c31aaf89d0d4fa)
    Signature Algorithm: sha1WithRSAEncryption
        Issuer: C=AU, ST=Some-State, O=Internet Widgits Pty Ltd, CN=tim
        Validity
            Not Before: May 24 13:49:05 2016 GMT
            Not After : May 24 13:49:05 2017 GMT
        Subject: C=AU, ST=Some-State, O=Internet Widgits Pty Ltd, CN=tim2
        Subject Public Key Info:
            Public Key Algorithm: rsaEncryption
                Public-Key: (2048 bit)
                Modulus:
                    00:b5:07:02:4a:53:64:d1:66:8a:e8:f6:4a:0f:95:
                    e6:2a:cc:16:53:20:1c:e6:e5:fd:80:f5:45:e9:1d:
                    36:0a:32:88:80:05:2c:6b:b0:88:47:4b:26:55:32:
                    e1:6d:82:b2:81:ba:af:0f:34:f3:ab:73:d0:1f:a2:
                    dd:6e:bb:33:d7:2e:65:4e:8f:cd:28:33:c4:d3:b9:
                    bd:75:a4:33:1e:60:6b:6e:89:85:77:28:c8:9b:fc:
                    1c:75:6e:c5:85:7f:8f:60:07:3b:57:14:3e:9d:6b:
                    24:ff:43:f9:90:32:d6:e3:9b:ce:97:75:91:74:34:
                    f9:24:aa:08:57:64:26:1e:49:37:f7:49:cd:25:5e:
                    53:a1:20:dd:0d:a0:d1:87:df:9f:da:97:25:cc:ae:
                    82:0e:23:21:6f:ce:39:52:e4:10:97:f7:64:7d:d0:
                    e0:20:41:9a:67:94:8c:37:41:eb:20:45:39:49:40:
                    c0:ae:44:a9:b2:de:c4:bd:57:bd:6e:c9:df:f7:bf:
                    37:22:c1:96:82:7d:5b:ea:65:87:09:c7:37:8e:ac:
                    f9:ab:c8:38:6d:8a:1a:85:38:2f:61:59:da:9c:dd:
                    e7:58:b5:69:13:2f:55:5d:1f:a7:f8:71:a0:11:7d:
                    a2:a2:55:1e:37:e4:47:21:e4:ce:06:22:8d:b4:7e:
                    6b:7d
                Exponent: 65537 (0x10001)
        X509v3 extensions:
            X509v3 Basic Constraints: 
                CA:FALSE
            Netscape Comment: 
                OpenSSL Generated Certificate
            X509v3 Subject Key Identifier: 
                A5:2F:E8:AA:0B:40:17:96:18:4C:4C:30:B8:5E:F3:56:BA:4D:F2:79
            X509v3 Authority Key Identifier: 
                keyid:B8:9B:AD:6F:56:68:3B:19:67:F4:D2:0C:0F:FF:0F:65:73:A0:00:02

    Signature Algorithm: sha1WithRSAEncryption
         8a:82:8e:e8:26:92:0d:d4:90:ad:12:33:91:cc:cb:c0:61:22:
         37:ea:a0:3b:58:ea:6c:55:3b:d8:ee:80:7b:1f:53:4e:74:09:
         30:8d:70:3e:9e:87:d0:4c:3b:06:3e:a4:c3:df:05:09:52:83:
         57:d4:3a:49:4f:11:b1:89:8f:24:47:5b:f2:b0:2b:f3:d7:4a:
         12:87:3e:6b:2a:0d:55:1c:74:2d:bb:8f:76:55:aa:a3:10:18:
         ea:0d:6a:f8:6d:96:2a:bd:73:68:cb:f2:06:a9:99:f5:18:ec:
         84:22:c4:29:71:e2:5e:fd:e3:1a:51:ac:47:73:ea:2f:ca:42:
         56:30:e1:5a:3c:62:0b:0a:8a:25:42:86:2a:c4:28:45:54:6b:
         a6:c1:3f:23:f0:e1:d3:4d:4b:27:a9:20:30:84:a5:33:7d:34:
         60:b9:48:5e:0b:0d:6a:37:c1:f8:bb:f1:6a:05:12:ab:a4:d1:
         b6:36:0a:43:03:a3:32:04:0a:82:23:ee:c3:14:ec:d1:c8:c2:
         c3:d4:12:65:6d:49:20:a8:95:39:0b:ab:3d:29:41:d5:35:92:
         65:36:06:10:ef:4d:f6:c7:63:e8:f1:14:a3:11:b4:85:b8:60:
         b0:24:5b:82:df:1b:b8:62:2c:2b:55:78:a1:be:5b:67:aa:b3:
         42:fd:b8:83
-----BEGIN CERTIFICATE-----
MIIDpTCCAo2gAwIBAgIJAKLDGq+J0NT6MA0GCSqGSIb3DQEBBQUAMFMxCzAJBgNV
BAYTAkFVMRMwEQYDVQQIDApTb21lLVN0YXRlMSEwHwYDVQQKDBhJbnRlcm5ldCBX
aWRnaXRzIFB0eSBMdGQxDDAKBgNVBAMMA3RpbTAeFw0xNjA1MjQxMzQ5MDVaFw0x
NzA1MjQxMzQ5MDVaMFQxCzAJBgNVBAYTAkFVMRMwEQYDVQQIDApTb21lLVN0YXRl
MSEwHwYDVQQKDBhJbnRlcm5ldCBXaWRnaXRzIFB0eSBMdGQxDTALBgNVBAMMBHRp
bTIwggEiMA0GCSqGSIb3DQEBAQUAA4IBDwAwggEKAoIBAQC1BwJKU2TRZoro9koP
leYqzBZTIBzm5f2A9UXpHTYKMoiABSxrsIhHSyZVMuFtgrKBuq8PNPOrc9Afot1u
uzPXLmVOj80oM8TTub11pDMeYGtuiYV3KMib/Bx1bsWFf49gBztXFD6dayT/Q/mQ
Mtbjm86XdZF0NPkkqghXZCYeSTf3Sc0lXlOhIN0NoNGH35/alyXMroIOIyFvzjlS
5BCX92R90OAgQZpnlIw3QesgRTlJQMCuRKmy3sS9V71uyd/3vzciwZaCfVvqZYcJ
xzeOrPmryDhtihqFOC9hWdqc3edYtWkTL1VdH6f4caARfaKiVR435Ech5M4GIo20
fmt9AgMBAAGjezB5MAkGA1UdEwQCMAAwLAYJYIZIAYb4QgENBB8WHU9wZW5TU0wg
R2VuZXJhdGVkIENlcnRpZmljYXRlMB0GA1UdDgQWBBSlL+iqC0AXlhhMTDC4XvNW
uk3yeTAfBgNVHSMEGDAWgBS4m61vVmg7GWf00gwP/w9lc6AAAjANBgkqhkiG9w0B
AQUFAAOCAQEAioKO6CaSDdSQrRIzkczLwGEiN+qgO1jqbFU72O6Aex9TTnQJMI1w
Pp6H0Ew7Bj6kw98FCVKDV9Q6SU8RsYmPJEdb8rAr89dKEoc+ayoNVRx0LbuPdlWq
oxAY6g1q+G2WKr1zaMvyBqmZ9RjshCLEKXHiXv3jGlGsR3PqL8pCVjDhWjxiCwqK
JUKGKsQoRVRrpsE/I/Dh001LJ6kgMISlM300YLlIXgsNajfB+LvxagUSq6TRtjYK
QwOjMgQKgiPuwxTs0cjCw9QSZW1JIKiVOQurPSlB1TWSZTYGEO9N9sdj6PEUoxG0
hbhgsCRbgt8buGIsK1V4ob5bZ6qzQv24gw==
-----END CERTIFICATE-----
