Certificate:
    Data:
        Version: 3 (0x2)
        Serial Number: 9721108262475264188 (0x86e85075c7f3f0bc)
    Signature Algorithm: sha1WithRSAEncryption
        Issuer: C=AU, ST=Some-State, O=Internet Widgits Pty Ltd, CN=tim2
        Validity
            Not Before: May 24 13:50:17 2016 GMT
            Not After : May 24 13:50:17 2017 GMT
        Subject: C=AU, ST=Some-State, O=Internet Widgits Pty Ltd, CN=tim3
        Subject Public Key Info:
            Public Key Algorithm: rsaEncryption
                Public-Key: (2048 bit)
                Modulus:
                    00:9f:70:88:a6:88:21:5f:06:07:02:74:29:97:f2:
                    e3:0a:47:5f:e6:e1:06:4f:3a:7b:7f:1b:9f:56:6e:
                    e8:e8:57:96:41:9c:e8:69:75:11:71:e8:39:6c:7e:
                    71:a2:d3:94:ef:29:4f:c2:f7:1c:e8:49:ef:6b:b4:
                    59:97:8d:a1:ae:12:99:dd:1b:ed:a2:54:9c:cf:fd:
                    bb:cc:c0:24:0a:d0:a1:af:bb:80:03:a5:0a:8c:0b:
                    09:ad:29:9e:8a:1c:62:0e:95:11:9c:e1:95:7a:6f:
                    99:8a:c1:94:de:3e:d7:22:3d:fa:e9:04:91:d7:0f:
                    3b:2a:36:c9:f2:cc:cd:a4:33:a5:73:06:c1:75:68:
                    a6:0a:1a:db:f0:87:94:62:72:4e:4c:1c:83:85:04:
                    28:55:f0:f5:1f:75:9e:84:f9:1f:b8:83:9f:f2:8f:
                    26:53:05:e6:61:b4:09:22:69:99:5a:3a:c8:40:63:
                    d9:04:5e:1a:c3:e7:ef:f5:7b:13:da:f8:5d:d4:ca:
                    c0:53:f6:a8:48:2d:84:e3:1e:0e:76:41:dc:b5:08:
                    b2:ec:3a:bd:66:eb:cb:b9:a9:cd:89:04:1e:9d:20:
                    9d:1b:ce:ad:83:92:32:ce:31:bd:8b:35:97:87:ae:
                    07:63:55:99:7d:38:d0:3d:01:ac:1c:ce:a8:03:fd:
                    de:7f
                Exponent: 65537 (0x10001)
        X509v3 extensions:
            X509v3 Basic Constraints: 
                CA:FALSE
            Netscape Comment: 
                OpenSSL Generated Certificate
            X509v3 Subject Key Identifier: 
                3F:D1:CB:30:1D:56:99:38:9B:E1:E6:99:66:1D:F1:29:22:F0:88:AE
            X509v3 Authority Key Identifier: 
                keyid:1A:10:E8:BF:85:EE:75:E7:A8:0B:4F:98:0A:68:1B:F6:6B:52:3E:17

    Signature Algorithm: sha1WithRSAEncryption
         3b:25:ca:28:f5:f3:01:de:58:3f:f8:62:1f:33:c9:3a:a5:5b:
         39:93:83:a5:fe:a1:8a:1b:18:57:4f:be:97:81:f9:68:3b:56:
         1c:eb:b6:1e:57:e3:a4:5e:64:83:90:a6:6b:36:6a:ee:fb:9a:
         31:e3:d2:f2:b1:17:65:54:10:c4:b5:2a:b1:8b:05:ac:36:ac:
         85:3e:aa:d0:df:f7:a8:74:59:d2:1d:96:3c:d7:1b:2a:51:97:
         a9:4a:bb:d3:3f:1f:92:66:ef:ba:7c:5d:41:c2:b2:ec:da:69:
         41:27:3e:79:a1:8b:31:8d:17:6a:41:23:7a:e0:c5:87:f4:94:
         9b:29:4a:ba:8e:c9:4a:95:a4:26:9b:92:a1:1d:91:b9:00:46:
         eb:ca:41:7c:2a:5d:56:3a:2b:e6:b2:85:1c:ae:3b:c4:4a:23:
         cd:62:f5:72:13:8e:42:59:e4:93:f8:69:35:34:12:db:02:90:
         77:8a:13:0b:ab:fa:e7:f7:70:ba:c6:7b:4b:bb:3c:53:c0:ef:
         1b:93:f8:f8:11:c2:fd:ca:14:59:53:e0:01:92:87:14:7f:84:
         88:fe:b8:78:ce:87:1f:b6:ed:7b:60:ff:98:eb:4c:4a:52:05:
         f3:4e:cd:d1:e1:a1:c7:fc:85:3f:86:f2:1e:22:1e:21:b6:da:
         7b:84:ad:05
-----BEGIN CERTIFICATE-----
MIIDpjCCAo6gAwIBAgIJAIboUHXH8/C8MA0GCSqGSIb3DQEBBQUAMFQxCzAJBgNV
BAYTAkFVMRMwEQYDVQQIDApTb21lLVN0YXRlMSEwHwYDVQQKDBhJbnRlcm5ldCBX
aWRnaXRzIFB0eSBMdGQxDTALBgNVBAMMBHRpbTIwHhcNMTYwNTI0MTM1MDE3WhcN
MTcwNTI0MTM1MDE3WjBUMQswCQYDVQQGEwJBVTETMBEGA1UECAwKU29tZS1TdGF0
ZTEhMB8GA1UECgwYSW50ZXJuZXQgV2lkZ2l0cyBQdHkgTHRkMQ0wCwYDVQQDDAR0
aW0zMIIBIjANBgkqhkiG9w0BAQEFAAOCAQ8AMIIBCgKCAQEAn3CIpoghXwYHAnQp
l/LjCkdf5uEGTzp7fxufVm7o6FeWQZzoaXURceg5bH5xotOU7ylPwvcc6Enva7RZ
l42hrhKZ3RvtolScz/27zMAkCtChr7uAA6UKjAsJrSmeihxiDpURnOGVem+ZisGU
3j7XIj366QSR1w87KjbJ8szNpDOlcwbBdWimChrb8IeUYnJOTByDhQQoVfD1H3We
hPkfuIOf8o8mUwXmYbQJImmZWjrIQGPZBF4aw+fv9XsT2vhd1MrAU/aoSC2E4x4O
dkHctQiy7Dq9ZuvLuanNiQQenSCdG86tg5IyzjG9izWXh64HY1WZfTjQPQGsHM6o
A/3efwIDAQABo3sweTAJBgNVHRMEAjAAMCwGCWCGSAGG+EIBDQQfFh1PcGVuU1NM
IEdlbmVyYXRlZCBDZXJ0aWZpY2F0ZTAdBgNVHQ4EFgQUP9HLMB1WmTib4eaZZh3x
KSLwiK4wHwYDVR0jBBgwFoAUGhDov4XudeeoC0+YCmgb9mtSPhcwDQYJKoZIhvcN
AQEFBQADggEBADslyij18wHeWD/4Yh8zyTqlWzmTg6X+oYobGFdPvpeB+Wg7Vhzr
th5X46ReZIOQpms2au77mjHj0vKxF2VUEMS1KrGLBaw2rIU+qtDf96h0WdIdljzX
GypRl6lKu9M/H5Jm77p8XUHCsuzaaUEnPnmhizGNF2pBI3rgxYf0lJspSrqOyUqV
pCabkqEdkbkARuvKQXwqXVY6K+ayhRyuO8RKI81i9XITjkJZ5JP4aTU0EtsCkHeK
Ewur+uf3cLrGe0u7PFPA7xuT+PgRwv3KFFlT4AGShxR/hIj+uHjOhx+27Xtg/5jr
TEpSBfNOzdHhocf8hT+G8h4iHiG22nuErQU=
-----END CERTIFICATE-----
