Certificate:
    Data:
        Version: 3 (0x2)
        Serial Number: 14254289279633723104 (0xc5d16893ce3a0ee0)
    Signature Algorithm: sha1WithRSAEncryption
        Issuer: C=AU, ST=Some-State, O=Internet Widgits Pty Ltd, CN=tim3
        Validity
            Not Before: May 24 13:45:38 2016 GMT
            Not After : May 24 13:45:38 2017 GMT
        Subject: C=AU, ST=Some-State, O=Internet Widgits Pty Ltd, CN=tim4
        Subject Public Key Info:
            Public Key Algorithm: rsaEncryption
                Public-Key: (2048 bit)
                Modulus:
                    00:aa:52:32:be:63:b6:c7:20:a7:26:d1:c1:93:f0:
                    d3:1f:02:83:1f:a0:ad:13:bc:d6:65:80:d9:8d:b9:
                    ed:95:72:a1:90:d1:5c:a5:01:20:5d:78:ab:5a:99:
                    8f:fa:82:c6:e4:6e:20:65:d5:4e:fd:4f:18:0e:3a:
                    8c:49:92:bd:e7:22:05:92:55:26:b1:b5:0f:e2:7f:
                    65:8e:ad:f9:9a:21:12:82:7f:8f:0a:3d:53:20:5f:
                    e4:b2:f4:1a:4f:e3:4d:54:de:49:01:09:df:c7:fc:
                    48:32:4e:47:df:b8:32:5d:60:20:19:4e:20:56:90:
                    d5:32:33:b5:7b:96:71:aa:90:f9:2f:0b:68:f2:7f:
                    bd:91:cc:4e:34:40:8d:ef:44:74:d1:d1:2b:11:9b:
                    7a:eb:ab:1e:e0:37:83:35:80:3f:1d:f4:a7:b1:12:
                    40:ee:96:f6:63:88:be:02:eb:6a:c8:32:5a:f1:87:
                    4b:0c:c7:5f:98:76:2b:ed:63:41:c2:74:0a:ea:24:
                    fb:d2:0d:84:24:8c:1b:13:12:e9:d5:2f:bc:0e:98:
                    4e:66:cc:ff:30:e3:13:64:15:e0:db:c6:0d:6d:50:
                    f1:22:0a:af:c1:45:9f:bb:d8:9c:40:0b:4b:1d:e5:
                    a4:b7:2c:e6:35:a8:fc:e0:ff:2c:22:63:66:a3:42:
                    2c:09
                Exponent: 65537 (0x10001)
        X509v3 extensions:
            X509v3 Basic Constraints: 
                CA:FALSE
            Netscape Comment: 
                OpenSSL Generated Certificate
            X509v3 Subject Key Identifier: 
                88:FA:CE:CD:3D:9C:15:6D:C0:84:80:C9:7E:F1:29:06:C3:D9:72:65
            X509v3 Authority Key Identifier: 
                keyid:82:7F:0D:91:4E:94:40:6E:5C:C2:39:60:46:EE:1F:77:12:B1:49:67

    Signature Algorithm: sha1WithRSAEncryption
         17:6b:80:3e:e3:7e:5c:ab:cc:88:26:34:32:02:14:2d:0c:79:
         29:3a:0b:76:36:ea:44:f8:ef:f3:a9:98:07:9f:17:90:ab:76:
         06:7d:79:35:c1:be:5c:87:1f:e7:59:5e:1c:19:90:18:ec:ef:
         a0:33:27:33:72:2b:94:1f:88:bf:37:bb:8d:86:24:07:2d:94:
         42:91:27:b5:eb:69:b5:31:ec:fc:d6:9a:82:56:f2:e2:a3:59:
         b5:ab:e0:21:34:aa:5c:7e:9a:ea:a8:7c:79:ea:eb:b5:f5:a7:
         ee:06:1c:21:4f:6a:21:9b:31:f8:8a:79:11:74:48:1b:25:da:
         2e:94:63:6d:d6:cc:90:9a:4e:0a:6a:46:f6:57:04:df:ce:d5:
         1d:5a:6b:c7:99:a8:ab:80:ab:24:7a:f0:3f:93:8e:40:d2:6e:
         f0:22:66:5a:65:fe:1e:1e:42:14:94:d6:10:3c:8f:1f:bc:2a:
         13:6c:6b:49:65:56:af:01:ca:5a:75:b0:af:1c:92:a6:e7:33:
         54:fc:d8:cb:76:f5:8a:fe:6c:c9:90:e9:67:e0:1a:31:31:d0:
         db:36:a8:1f:de:9d:97:97:30:9c:50:dd:cf:89:d1:bd:ea:58:
         4f:aa:6f:d4:3b:c5:30:67:8f:8b:cc:68:1c:7b:f5:f9:94:45:
         da:92:94:a6
-----BEGIN CERTIFICATE-----
MIIDpjCCAo6gAwIBAgIJAMXRaJPOOg7gMA0GCSqGSIb3DQEBBQUAMFQxCzAJBgNV
BAYTAkFVMRMwEQYDVQQIDApTb21lLVN0YXRlMSEwHwYDVQQKDBhJbnRlcm5ldCBX
aWRnaXRzIFB0eSBMdGQxDTALBgNVBAMMBHRpbTMwHhcNMTYwNTI0MTM0NTM4WhcN
MTcwNTI0MTM0NTM4WjBUMQswCQYDVQQGEwJBVTETMBEGA1UECAwKU29tZS1TdGF0
ZTEhMB8GA1UECgwYSW50ZXJuZXQgV2lkZ2l0cyBQdHkgTHRkMQ0wCwYDVQQDDAR0
aW00MIIBIjANBgkqhkiG9w0BAQEFAAOCAQ8AMIIBCgKCAQEAqlIyvmO2xyCnJtHB
k/DTHwKDH6CtE7zWZYDZjbntlXKhkNFcpQEgXXirWpmP+oLG5G4gZdVO/U8YDjqM
SZK95yIFklUmsbUP4n9ljq35miESgn+PCj1TIF/ksvQaT+NNVN5JAQnfx/xIMk5H
37gyXWAgGU4gVpDVMjO1e5ZxqpD5Lwto8n+9kcxONECN70R00dErEZt666se4DeD
NYA/HfSnsRJA7pb2Y4i+AutqyDJa8YdLDMdfmHYr7WNBwnQK6iT70g2EJIwbExLp
1S+8DphOZsz/MOMTZBXg28YNbVDxIgqvwUWfu9icQAtLHeWktyzmNaj84P8sImNm
o0IsCQIDAQABo3sweTAJBgNVHRMEAjAAMCwGCWCGSAGG+EIBDQQfFh1PcGVuU1NM
IEdlbmVyYXRlZCBDZXJ0aWZpY2F0ZTAdBgNVHQ4EFgQUiPrOzT2cFW3AhIDJfvEp
BsPZcmUwHwYDVR0jBBgwFoAUgn8NkU6UQG5cwjlgRu4fdxKxSWcwDQYJKoZIhvcN
AQEFBQADggEBABdrgD7jflyrzIgmNDICFC0MeSk6C3Y26kT47/OpmAefF5CrdgZ9
eTXBvlyHH+dZXhwZkBjs76AzJzNyK5QfiL83u42GJActlEKRJ7XrabUx7PzWmoJW
8uKjWbWr4CE0qlx+muqofHnq67X1p+4GHCFPaiGbMfiKeRF0SBsl2i6UY23WzJCa
TgpqRvZXBN/O1R1aa8eZqKuAqyR68D+TjkDSbvAiZlpl/h4eQhSU1hA8jx+8KhNs
a0llVq8Bylp1sK8ckqbnM1T82Mt29Yr+bMmQ6WfgGjEx0Ns2qB/enZeXMJxQ3c+J
0b3qWE+qb9Q7xTBnj4vMaBx79fmURdqSlKY=
-----END CERTIFICATE-----
